target datalayout = "e-m:e-p270:32:32-p271:32:32-p272:64:64-i64:64-i128:128-f80:128-n8:16:32:64-S128"
target triple = "x86_64-pc-linux-gnu"

%struct.AVCodecContext = type { ptr, i32, i32, ptr, i32, i32, ptr, ptr, ptr, i64, i32, i32, ptr, i32, %struct.AVRational, %struct.AVRational, %struct.AVRational, i32, i32, i32, i32, i32, %struct.AVRational, i32, i32, i32, i32, i32, i32, i32, i32, i32, i32, i32, ptr, ptr, i32, float, float, float, float, float, float, float, float, float, i32, i32, i32, i32, i32, i32, i32, i32, i32, i32, i32, i32, ptr, ptr, ptr, i32, i32, i32, i32, i32, i32, i32, i32, i32, i32, %struct.AVChannelLayout, i32, i32, i32, i32, i32, i32, i32, i32, ptr, i32, i32, i32, float, float, i32, i32, i32, i32, i32, ptr, i64, i64, float, float, i32, i32, ptr, ptr, i32, i32, i32, i32, i32, ptr, ptr, ptr, ptr, i32, i32, [8 x i64], i32, i32, i32, i32, i32, i32, i32, ptr, ptr, i32, i32, i32, i32, i32, i32, i32, i32, i32, i32, ptr, ptr, i32, i32, ptr, ptr, ptr, ptr, i32, i32, i64, i32, i32, i64, ptr, i64, ptr, i32, ptr, i32 }
%struct.AVRational = type { i32, i32 }
%struct.AVChannelLayout = type { i32, i32, %union.anon.0, ptr }
%union.anon.0 = type { i64 }
%struct.IffContext = type { i32, ptr, ptr, ptr, ptr, ptr, i32, i32, i32, i32, i32, i32, i32, i32, i32, i32, [16 x i16], [2 x ptr], i32, ptr }

@.str.13 = private unnamed_addr constant [41 x i8] c"bits_per_coded_sample > 8 not supported\0A\00", align 1
@.str.14 = private unnamed_addr constant [17 x i8] c"overlapping mask\00", align 1

; Function Attrs: alwaysinline nounwind uwtable
define internal i32 @gray2rgb(i32 noundef %0) #5 {
  %2 = alloca i32, align 4
  store i32 %0, ptr %2, align 4, !tbaa !35
  %3 = load i32, ptr %2, align 4, !tbaa !35
  %4 = shl i32 %3, 16
  %5 = load i32, ptr %2, align 4, !tbaa !35
  %6 = shl i32 %5, 8
  %7 = or i32 %4, %6
  %8 = load i32, ptr %2, align 4, !tbaa !35
  %9 = or i32 %7, %8
  ret i32 %9
}

; Function Attrs: alwaysinline nounwind willreturn memory(none) uwtable
define internal zeroext i16 @av_bswap16(i16 noundef zeroext %0) #3 {
  %2 = alloca i16, align 2
  store i16 %0, ptr %2, align 2, !tbaa !115
  %3 = load i16, ptr %2, align 2, !tbaa !115
  %4 = zext i16 %3 to i32
  %5 = ashr i32 %4, 8
  %6 = load i16, ptr %2, align 2, !tbaa !115
  %7 = zext i16 %6 to i32
  %8 = shl i32 %7, 8
  %9 = or i32 %5, %8
  %10 = trunc i32 %9 to i16
  store i16 %10, ptr %2, align 2, !tbaa !115
  %11 = load i16, ptr %2, align 2, !tbaa !115
  ret i16 %11
}

; Function Attrs: nounwind uwtable
define internal i32 @cmap_read_palette(ptr noundef %0, ptr noundef %1) #1 {
  %3 = alloca i32, align 4
  %4 = alloca ptr, align 8
  %5 = alloca ptr, align 8
  %6 = alloca ptr, align 8
  %7 = alloca i32, align 4
  %8 = alloca i32, align 4
  %9 = alloca ptr, align 8
  %10 = alloca i32, align 4
  %11 = alloca i32, align 4
  store ptr %0, ptr %4, align 8, !tbaa !4
  store ptr %1, ptr %5, align 8, !tbaa !49
  call void @llvm.lifetime.start.p0(i64 8, ptr %6) #9
  %12 = load ptr, ptr %4, align 8, !tbaa !4
  %13 = getelementptr inbounds nuw %struct.AVCodecContext, ptr %12, i32 0, i32 6
  %14 = load ptr, ptr %13, align 8, !tbaa !9
  store ptr %14, ptr %6, align 8, !tbaa !29
  call void @llvm.lifetime.start.p0(i64 4, ptr %7) #9
  call void @llvm.lifetime.start.p0(i64 4, ptr %8) #9
  call void @llvm.lifetime.start.p0(i64 8, ptr %9) #9
  %15 = load ptr, ptr %4, align 8, !tbaa !4
  %16 = getelementptr inbounds nuw %struct.AVCodecContext, ptr %15, i32 0, i32 12
  %17 = load ptr, ptr %16, align 8, !tbaa !33
  %18 = load ptr, ptr %4, align 8, !tbaa !4
  %19 = getelementptr inbounds nuw %struct.AVCodecContext, ptr %18, i32 0, i32 12
  %20 = load ptr, ptr %19, align 8, !tbaa !33
  %21 = load i16, ptr %20, align 1, !tbaa !34
  %22 = call zeroext i16 @av_bswap16(i16 noundef zeroext %21) #10
  %23 = zext i16 %22 to i32
  %24 = sext i32 %23 to i64
  %25 = getelementptr inbounds i8, ptr %17, i64 %24
  store ptr %25, ptr %9, align 8, !tbaa !45
  call void @llvm.lifetime.start.p0(i64 4, ptr %10) #9
  %26 = load ptr, ptr %4, align 8, !tbaa !4
  %27 = getelementptr inbounds nuw %struct.AVCodecContext, ptr %26, i32 0, i32 13
  %28 = load i32, ptr %27, align 8, !tbaa !32
  %29 = load ptr, ptr %4, align 8, !tbaa !4
  %30 = getelementptr inbounds nuw %struct.AVCodecContext, ptr %29, i32 0, i32 12
  %31 = load ptr, ptr %30, align 8, !tbaa !33
  %32 = load i16, ptr %31, align 1, !tbaa !34
  %33 = call zeroext i16 @av_bswap16(i16 noundef zeroext %32) #10
  %34 = zext i16 %33 to i32
  %35 = sub nsw i32 %28, %34
  store i32 %35, ptr %10, align 4, !tbaa !35
  %36 = load ptr, ptr %4, align 8, !tbaa !4
  %37 = getelementptr inbounds nuw %struct.AVCodecContext, ptr %36, i32 0, i32 114
  %38 = load i32, ptr %37, align 8, !tbaa !31
  %39 = icmp sgt i32 %38, 8
  br i1 %39, label %40, label %42

40:                                               ; preds = %2
  %41 = load ptr, ptr %4, align 8, !tbaa !4
  call void (ptr, i32, ptr, ...) @av_log(ptr noundef %41, i32 noundef 16, ptr noundef @.str.13)
  store i32 -1094995529, ptr %3, align 4
  store i32 1, ptr %11, align 4
  br label %255

42:                                               ; preds = %2
  %43 = load ptr, ptr %4, align 8, !tbaa !4
  %44 = getelementptr inbounds nuw %struct.AVCodecContext, ptr %43, i32 0, i32 114
  %45 = load i32, ptr %44, align 8, !tbaa !31
  %46 = shl i32 1, %45
  store i32 %46, ptr %7, align 4, !tbaa !35
  %47 = load i32, ptr %10, align 4, !tbaa !35
  %48 = udiv i32 %47, 3
  %49 = load i32, ptr %7, align 4, !tbaa !35
  %50 = icmp ugt i32 %48, %49
  br i1 %50, label %51, label %53

51:                                               ; preds = %42
  %52 = load i32, ptr %7, align 4, !tbaa !35
  br label %56

53:                                               ; preds = %42
  %54 = load i32, ptr %10, align 4, !tbaa !35
  %55 = udiv i32 %54, 3
  br label %56

56:                                               ; preds = %53, %51
  %57 = phi i32 [ %52, %51 ], [ %55, %53 ]
  store i32 %57, ptr %7, align 4, !tbaa !35
  %58 = load i32, ptr %7, align 4, !tbaa !35
  %59 = icmp ne i32 %58, 0
  br i1 %59, label %60, label %163

60:                                               ; preds = %56
  store i32 0, ptr %8, align 4, !tbaa !35
  br label %61

61:                                               ; preds = %99, %60
  %62 = load i32, ptr %8, align 4, !tbaa !35
  %63 = load i32, ptr %7, align 4, !tbaa !35
  %64 = icmp ult i32 %62, %63
  br i1 %64, label %65, label %102

65:                                               ; preds = %61
  %66 = load ptr, ptr %9, align 8, !tbaa !45
  %67 = load i32, ptr %8, align 4, !tbaa !35
  %68 = mul i32 %67, 3
  %69 = zext i32 %68 to i64
  %70 = getelementptr inbounds nuw i8, ptr %66, i64 %69
  %71 = getelementptr inbounds i8, ptr %70, i64 0
  %72 = load i8, ptr %71, align 1, !tbaa !34
  %73 = zext i8 %72 to i32
  %74 = shl i32 %73, 16
  %75 = load ptr, ptr %9, align 8, !tbaa !45
  %76 = load i32, ptr %8, align 4, !tbaa !35
  %77 = mul i32 %76, 3
  %78 = zext i32 %77 to i64
  %79 = getelementptr inbounds nuw i8, ptr %75, i64 %78
  %80 = getelementptr inbounds i8, ptr %79, i64 1
  %81 = load i8, ptr %80, align 1, !tbaa !34
  %82 = zext i8 %81 to i32
  %83 = shl i32 %82, 8
  %84 = or i32 %74, %83
  %85 = load ptr, ptr %9, align 8, !tbaa !45
  %86 = load i32, ptr %8, align 4, !tbaa !35
  %87 = mul i32 %86, 3
  %88 = zext i32 %87 to i64
  %89 = getelementptr inbounds nuw i8, ptr %85, i64 %88
  %90 = getelementptr inbounds i8, ptr %89, i64 2
  %91 = load i8, ptr %90, align 1, !tbaa !34
  %92 = zext i8 %91 to i32
  %93 = or i32 %84, %92
  %94 = or i32 -16777216, %93
  %95 = load ptr, ptr %5, align 8, !tbaa !49
  %96 = load i32, ptr %8, align 4, !tbaa !35
  %97 = zext i32 %96 to i64
  %98 = getelementptr inbounds nuw i32, ptr %95, i64 %97
  store i32 %94, ptr %98, align 4, !tbaa !35
  br label %99

99:                                               ; preds = %65
  %100 = load i32, ptr %8, align 4, !tbaa !35
  %101 = add i32 %100, 1
  store i32 %101, ptr %8, align 4, !tbaa !35
  br label %61, !llvm.loop !133

102:                                              ; preds = %61
  %103 = load ptr, ptr %6, align 8, !tbaa !29
  %104 = getelementptr inbounds nuw %struct.IffContext, ptr %103, i32 0, i32 12
  %105 = load i32, ptr %104, align 8, !tbaa !117
  %106 = icmp ne i32 %105, 0
  br i1 %106, label %107, label %162

107:                                              ; preds = %102
  %108 = load i32, ptr %7, align 4, !tbaa !35
  %109 = icmp uge i32 %108, 32
  br i1 %109, label %110, label %162

110:                                              ; preds = %107
  store i32 0, ptr %8, align 4, !tbaa !35
  br label %111

111:                                              ; preds = %151, %110
  %112 = load i32, ptr %8, align 4, !tbaa !35
  %113 = icmp ult i32 %112, 32
  br i1 %113, label %114, label %154

114:                                              ; preds = %111
  %115 = load ptr, ptr %9, align 8, !tbaa !45
  %116 = load i32, ptr %8, align 4, !tbaa !35
  %117 = mul i32 %116, 3
  %118 = zext i32 %117 to i64
  %119 = getelementptr inbounds nuw i8, ptr %115, i64 %118
  %120 = getelementptr inbounds i8, ptr %119, i64 0
  %121 = load i8, ptr %120, align 1, !tbaa !34
  %122 = zext i8 %121 to i32
  %123 = shl i32 %122, 16
  %124 = load ptr, ptr %9, align 8, !tbaa !45
  %125 = load i32, ptr %8, align 4, !tbaa !35
  %126 = mul i32 %125, 3
  %127 = zext i32 %126 to i64
  %128 = getelementptr inbounds nuw i8, ptr %124, i64 %127
  %129 = getelementptr inbounds i8, ptr %128, i64 1
  %130 = load i8, ptr %129, align 1, !tbaa !34
  %131 = zext i8 %130 to i32
  %132 = shl i32 %131, 8
  %133 = or i32 %123, %132
  %134 = load ptr, ptr %9, align 8, !tbaa !45
  %135 = load i32, ptr %8, align 4, !tbaa !35
  %136 = mul i32 %135, 3
  %137 = zext i32 %136 to i64
  %138 = getelementptr inbounds nuw i8, ptr %134, i64 %137
  %139 = getelementptr inbounds i8, ptr %138, i64 2
  %140 = load i8, ptr %139, align 1, !tbaa !34
  %141 = zext i8 %140 to i32
  %142 = or i32 %133, %141
  %143 = and i32 %142, 16711422
  %144 = ashr i32 %143, 1
  %145 = or i32 -16777216, %144
  %146 = load ptr, ptr %5, align 8, !tbaa !49
  %147 = load i32, ptr %8, align 4, !tbaa !35
  %148 = add i32 %147, 32
  %149 = zext i32 %148 to i64
  %150 = getelementptr inbounds nuw i32, ptr %146, i64 %149
  store i32 %145, ptr %150, align 4, !tbaa !35
  br label %151

151:                                              ; preds = %114
  %152 = load i32, ptr %8, align 4, !tbaa !35
  %153 = add i32 %152, 1
  store i32 %153, ptr %8, align 4, !tbaa !35
  br label %111, !llvm.loop !134

154:                                              ; preds = %111
  %155 = load i32, ptr %7, align 4, !tbaa !35
  %156 = icmp ugt i32 %155, 64
  br i1 %156, label %157, label %159

157:                                              ; preds = %154
  %158 = load i32, ptr %7, align 4, !tbaa !35
  br label %160

159:                                              ; preds = %154
  br label %160

160:                                              ; preds = %159, %157
  %161 = phi i32 [ %158, %157 ], [ 64, %159 ]
  store i32 %161, ptr %7, align 4, !tbaa !35
  br label %162

162:                                              ; preds = %160, %107, %102
  br label %189

163:                                              ; preds = %56
  %164 = load ptr, ptr %4, align 8, !tbaa !4
  %165 = getelementptr inbounds nuw %struct.AVCodecContext, ptr %164, i32 0, i32 114
  %166 = load i32, ptr %165, align 8, !tbaa !31
  %167 = shl i32 1, %166
  store i32 %167, ptr %7, align 4, !tbaa !35
  store i32 0, ptr %8, align 4, !tbaa !35
  br label %168

168:                                              ; preds = %185, %163
  %169 = load i32, ptr %8, align 4, !tbaa !35
  %170 = load i32, ptr %7, align 4, !tbaa !35
  %171 = icmp ult i32 %169, %170
  br i1 %171, label %172, label %188

172:                                              ; preds = %168
  %173 = load i32, ptr %8, align 4, !tbaa !35
  %174 = mul i32 %173, 255
  %175 = load ptr, ptr %4, align 8, !tbaa !4
  %176 = getelementptr inbounds nuw %struct.AVCodecContext, ptr %175, i32 0, i32 114
  %177 = load i32, ptr %176, align 8, !tbaa !31
  %178 = lshr i32 %174, %177
  %179 = call i32 @gray2rgb(i32 noundef %178)
  %180 = or i32 -16777216, %179
  %181 = load ptr, ptr %5, align 8, !tbaa !49
  %182 = load i32, ptr %8, align 4, !tbaa !35
  %183 = zext i32 %182 to i64
  %184 = getelementptr inbounds nuw i32, ptr %181, i64 %183
  store i32 %180, ptr %184, align 4, !tbaa !35
  br label %185

185:                                              ; preds = %172
  %186 = load i32, ptr %8, align 4, !tbaa !35
  %187 = add i32 %186, 1
  store i32 %187, ptr %8, align 4, !tbaa !35
  br label %168, !llvm.loop !135

188:                                              ; preds = %168
  br label %189

189:                                              ; preds = %188, %162
  %190 = load ptr, ptr %6, align 8, !tbaa !29
  %191 = getelementptr inbounds nuw %struct.IffContext, ptr %190, i32 0, i32 14
  %192 = load i32, ptr %191, align 8, !tbaa !60
  %193 = icmp eq i32 %192, 1
  br i1 %193, label %194, label %230

194:                                              ; preds = %189
  %195 = load ptr, ptr %4, align 8, !tbaa !4
  %196 = getelementptr inbounds nuw %struct.AVCodecContext, ptr %195, i32 0, i32 114
  %197 = load i32, ptr %196, align 8, !tbaa !31
  %198 = shl i32 1, %197
  %199 = load i32, ptr %7, align 4, !tbaa !35
  %200 = icmp ult i32 %198, %199
  br i1 %200, label %201, label %203

201:                                              ; preds = %194
  %202 = load ptr, ptr %4, align 8, !tbaa !4
  call void (ptr, ptr, ...) @avpriv_request_sample(ptr noundef %202, ptr noundef @.str.14)
  store i32 -1163346256, ptr %3, align 4
  store i32 1, ptr %11, align 4
  br label %255

203:                                              ; preds = %194
  %204 = load ptr, ptr %5, align 8, !tbaa !49
  %205 = load ptr, ptr %4, align 8, !tbaa !4
  %206 = getelementptr inbounds nuw %struct.AVCodecContext, ptr %205, i32 0, i32 114
  %207 = load i32, ptr %206, align 8, !tbaa !31
  %208 = shl i32 1, %207
  %209 = sext i32 %208 to i64
  %210 = getelementptr inbounds i32, ptr %204, i64 %209
  %211 = load ptr, ptr %5, align 8, !tbaa !49
  %212 = load i32, ptr %7, align 4, !tbaa !35
  %213 = mul i32 %212, 4
  %214 = zext i32 %213 to i64
  call void @llvm.memcpy.p0.p0.i64(ptr align 4 %210, ptr align 4 %211, i64 %214, i1 false)
  store i32 0, ptr %8, align 4, !tbaa !35
  br label %215

215:                                              ; preds = %226, %203
  %216 = load i32, ptr %8, align 4, !tbaa !35
  %217 = load i32, ptr %7, align 4, !tbaa !35
  %218 = icmp ult i32 %216, %217
  br i1 %218, label %219, label %229

219:                                              ; preds = %215
  %220 = load ptr, ptr %5, align 8, !tbaa !49
  %221 = load i32, ptr %8, align 4, !tbaa !35
  %222 = zext i32 %221 to i64
  %223 = getelementptr inbounds nuw i32, ptr %220, i64 %222
  %224 = load i32, ptr %223, align 4, !tbaa !35
  %225 = and i32 %224, 16777215
  store i32 %225, ptr %223, align 4, !tbaa !35
  br label %226

226:                                              ; preds = %219
  %227 = load i32, ptr %8, align 4, !tbaa !35
  %228 = add i32 %227, 1
  store i32 %228, ptr %8, align 4, !tbaa !35
  br label %215, !llvm.loop !136

229:                                              ; preds = %215
  br label %254

230:                                              ; preds = %189
  %231 = load ptr, ptr %6, align 8, !tbaa !29
  %232 = getelementptr inbounds nuw %struct.IffContext, ptr %231, i32 0, i32 14
  %233 = load i32, ptr %232, align 8, !tbaa !60
  %234 = icmp eq i32 %233, 2
  br i1 %234, label %235, label %253

235:                                              ; preds = %230
  %236 = load ptr, ptr %6, align 8, !tbaa !29
  %237 = getelementptr inbounds nuw %struct.IffContext, ptr %236, i32 0, i32 13
  %238 = load i32, ptr %237, align 4, !tbaa !118
  %239 = load ptr, ptr %4, align 8, !tbaa !4
  %240 = getelementptr inbounds nuw %struct.AVCodecContext, ptr %239, i32 0, i32 114
  %241 = load i32, ptr %240, align 8, !tbaa !31
  %242 = shl i32 1, %241
  %243 = icmp ult i32 %238, %242
  br i1 %243, label %244, label %253

244:                                              ; preds = %235
  %245 = load ptr, ptr %5, align 8, !tbaa !49
  %246 = load ptr, ptr %6, align 8, !tbaa !29
  %247 = getelementptr inbounds nuw %struct.IffContext, ptr %246, i32 0, i32 13
  %248 = load i32, ptr %247, align 4, !tbaa !118
  %249 = zext i32 %248 to i64
  %250 = getelementptr inbounds nuw i32, ptr %245, i64 %249
  %251 = load i32, ptr %250, align 4, !tbaa !35
  %252 = and i32 %251, 16777215
  store i32 %252, ptr %250, align 4, !tbaa !35
  br label %253

253:                                              ; preds = %244, %235, %230
  br label %254

254:                                              ; preds = %253, %229
  store i32 0, ptr %3, align 4
  store i32 1, ptr %11, align 4
  br label %255

255:                                              ; preds = %254, %201, %40
  call void @llvm.lifetime.end.p0(i64 4, ptr %10) #9
  call void @llvm.lifetime.end.p0(i64 8, ptr %9) #9
  call void @llvm.lifetime.end.p0(i64 4, ptr %8) #9
  call void @llvm.lifetime.end.p0(i64 4, ptr %7) #9
  call void @llvm.lifetime.end.p0(i64 8, ptr %6) #9
  %256 = load i32, ptr %3, align 4
  ret i32 %256
}