; Function Attrs: nounwind uwtable
define internal fastcc range(i32 -1163346256, 1) i32 @cmap_read_palette(ptr noundef %0, ptr noundef captures(none) %1) unnamed_addr #1 {
  %3 = getelementptr inbounds nuw i8, ptr %0, i64 32
  %4 = load ptr, ptr %3, align 8, !tbaa !4
  %5 = getelementptr inbounds nuw i8, ptr %0, i64 72
  %6 = load ptr, ptr %5, align 8, !tbaa !29
  %7 = load i16, ptr %6, align 1, !tbaa !30
  %8 = tail call i16 @llvm.bswap.i16(i16 %7)
  %9 = zext i16 %8 to i64
  %10 = getelementptr inbounds nuw i8, ptr %6, i64 %9
  %11 = getelementptr inbounds nuw i8, ptr %0, i64 648
  %12 = load i32, ptr %11, align 8, !tbaa !27
  %13 = icmp sgt i32 %12, 8
  br i1 %13, label %14, label %15

14:                                               ; preds = %2
  tail call void (ptr, i32, ptr, ...) @av_log(ptr noundef nonnull %0, i32 noundef 16, ptr noundef nonnull @.str.13) #10
  br label %.loopexit

15:                                               ; preds = %2
  %16 = getelementptr inbounds nuw i8, ptr %0, i64 80
  %17 = load i32, ptr %16, align 8, !tbaa !28
  %18 = zext i16 %8 to i32
  %19 = sub nsw i32 %17, %18
  %20 = shl nuw nsw i32 1, %12
  %21 = udiv i32 %19, 3
  %. = tail call i32 @llvm.umin.i32(i32 %21, i32 %20)
  %.not = icmp ult i32 %19, 3
  br i1 %.not, label %.preheader.preheader, label %.lr.ph.preheader

.preheader.preheader:                             ; preds = %15
  %wide.trip.count95 = zext nneg i32 %20 to i64
  br label %.preheader

.lr.ph.preheader:                                 ; preds = %15
  %umax = tail call i32 @llvm.umax.i32(i32 %., i32 1)
  %wide.trip.count = zext nneg i32 %umax to i64
  br label %.lr.ph

.lr.ph:                                           ; preds = %.lr.ph.preheader, %.lr.ph
  %indvars.iv = phi i64 [ 0, %.lr.ph.preheader ], [ %indvars.iv.next, %.lr.ph ]
  %22 = mul nuw nsw i64 %indvars.iv, 3
  %23 = getelementptr inbounds nuw i8, ptr %10, i64 %22
  %24 = load i8, ptr %23, align 1, !tbaa !30
  %25 = zext i8 %24 to i32
  %26 = shl nuw nsw i32 %25, 16
  %27 = getelementptr inbounds nuw i8, ptr %23, i64 1
  %28 = load i8, ptr %27, align 1, !tbaa !30
  %29 = zext i8 %28 to i32
  %30 = shl nuw nsw i32 %29, 8
  %31 = getelementptr inbounds nuw i8, ptr %23, i64 2
  %32 = load i8, ptr %31, align 1, !tbaa !30
  %33 = zext i8 %32 to i32
  %34 = or disjoint i32 %26, %30
  %35 = or disjoint i32 %34, %33
  %36 = or disjoint i32 %35, -16777216
  %37 = getelementptr inbounds nuw i32, ptr %1, i64 %indvars.iv
  store i32 %36, ptr %37, align 4, !tbaa !55
  %indvars.iv.next = add nuw nsw i64 %indvars.iv, 1
  %exitcond.not = icmp eq i64 %indvars.iv.next, %wide.trip.count
  br i1 %exitcond.not, label %._crit_edge, label %.lr.ph, !llvm.loop !156

._crit_edge:                                      ; preds = %.lr.ph
  %38 = getelementptr inbounds nuw i8, ptr %4, i64 72
  %39 = load i32, ptr %38, align 8, !tbaa !44
  %40 = icmp ne i32 %39, 0
  %41 = icmp samesign ugt i32 %., 31
  %or.cond = select i1 %40, i1 %41, i1 false
  br i1 %or.cond, label %.preheader76, label %.loopexit75

.preheader76:                                     ; preds = %._crit_edge
  %invariant.gep = getelementptr inbounds nuw i8, ptr %1, i64 128
  br label %42

42:                                               ; preds = %.preheader76, %42
  %indvars.iv87 = phi i64 [ 0, %.preheader76 ], [ %indvars.iv.next88, %42 ]
  %43 = mul nuw nsw i64 %indvars.iv87, 3
  %44 = getelementptr inbounds nuw i8, ptr %10, i64 %43
  %45 = load i8, ptr %44, align 1, !tbaa !30
  %46 = zext i8 %45 to i32
  %47 = shl nuw nsw i32 %46, 16
  %48 = getelementptr inbounds nuw i8, ptr %44, i64 1
  %49 = load i8, ptr %48, align 1, !tbaa !30
  %50 = zext i8 %49 to i32
  %51 = shl nuw nsw i32 %50, 8
  %52 = or disjoint i32 %51, %47
  %53 = getelementptr inbounds nuw i8, ptr %44, i64 2
  %54 = load i8, ptr %53, align 1, !tbaa !30
  %55 = zext i8 %54 to i32
  %56 = or disjoint i32 %52, %55
  %57 = lshr i32 %56, 1
  %58 = and i32 %57, 8355711
  %59 = or disjoint i32 %58, -16777216
  %gep = getelementptr inbounds nuw i32, ptr %invariant.gep, i64 %indvars.iv87
  store i32 %59, ptr %gep, align 4, !tbaa !55
  %indvars.iv.next88 = add nuw nsw i64 %indvars.iv87, 1
  %exitcond90.not = icmp eq i64 %indvars.iv.next88, 32
  br i1 %exitcond90.not, label %60, label %42, !llvm.loop !157

60:                                               ; preds = %42
  %61 = tail call i32 @llvm.umax.i32(i32 %., i32 64)
  br label %.loopexit75

.preheader:                                       ; preds = %.preheader.preheader, %.preheader
  %indvars.iv91 = phi i64 [ 0, %.preheader.preheader ], [ %indvars.iv.next92, %.preheader ]
  %62 = trunc nuw nsw i64 %indvars.iv91 to i32
  %63 = mul i32 %62, 255
  %64 = load i32, ptr %11, align 8, !tbaa !27
  %65 = lshr i32 %63, %64
  %66 = shl i32 %65, 16
  %67 = shl i32 %65, 8
  %68 = or i32 %67, %66
  %69 = or i32 %68, %65
  %70 = or i32 %69, -16777216
  %71 = getelementptr inbounds nuw i32, ptr %1, i64 %indvars.iv91
  store i32 %70, ptr %71, align 4, !tbaa !55
  %indvars.iv.next92 = add nuw nsw i64 %indvars.iv91, 1
  %exitcond96.not = icmp eq i64 %indvars.iv.next92, %wide.trip.count95
  br i1 %exitcond96.not, label %.loopexit75, label %.preheader, !llvm.loop !158

.loopexit75:                                      ; preds = %.preheader, %._crit_edge, %60
  %.065 = phi i32 [ %61, %60 ], [ %., %._crit_edge ], [ %20, %.preheader ]
  %72 = getelementptr inbounds nuw i8, ptr %4, i64 80
  %73 = load i32, ptr %72, align 8, !tbaa !46
  switch i32 %73, label %.loopexit [
    i32 1, label %74
    i32 2, label %87
  ]

74:                                               ; preds = %.loopexit75
  %75 = load i32, ptr %11, align 8, !tbaa !27
  %76 = shl nuw i32 1, %75
  %77 = icmp ult i32 %76, %.065
  br i1 %77, label %78, label %79

78:                                               ; preds = %74
  tail call void (ptr, ptr, ...) @avpriv_request_sample(ptr noundef nonnull %0, ptr noundef nonnull @.str.14) #10
  br label %.loopexit

79:                                               ; preds = %74
  %80 = sext i32 %76 to i64
  %81 = getelementptr inbounds i32, ptr %1, i64 %80
  %82 = shl i32 %.065, 2
  %83 = zext i32 %82 to i64
  tail call void @llvm.memcpy.p0.p0.i64(ptr nonnull align 4 %81, ptr nonnull align 4 %1, i64 %83, i1 false)
  %.not85 = icmp eq i32 %.065, 0
  br i1 %.not85, label %.loopexit, label %.lr.ph83.preheader

.lr.ph83.preheader:                               ; preds = %79
  %wide.trip.count100 = zext nneg i32 %.065 to i64
  br label %.lr.ph83

.lr.ph83:                                         ; preds = %.lr.ph83.preheader, %.lr.ph83
  %indvars.iv97 = phi i64 [ 0, %.lr.ph83.preheader ], [ %indvars.iv.next98, %.lr.ph83 ]
  %84 = getelementptr inbounds nuw i32, ptr %1, i64 %indvars.iv97
  %85 = load i32, ptr %84, align 4, !tbaa !55
  %86 = and i32 %85, 16777215
  store i32 %86, ptr %84, align 4, !tbaa !55
  %indvars.iv.next98 = add nuw nsw i64 %indvars.iv97, 1
  %exitcond101.not = icmp eq i64 %indvars.iv.next98, %wide.trip.count100
  br i1 %exitcond101.not, label %.loopexit, label %.lr.ph83, !llvm.loop !159

87:                                               ; preds = %.loopexit75
  %88 = getelementptr inbounds nuw i8, ptr %4, i64 76
  %89 = load i32, ptr %88, align 4, !tbaa !45
  %90 = load i32, ptr %11, align 8, !tbaa !27
  %.highbits = lshr i32 %89, %90
  %91 = icmp eq i32 %.highbits, 0
  br i1 %91, label %92, label %.loopexit

92:                                               ; preds = %87
  %93 = zext i32 %89 to i64
  %94 = getelementptr inbounds nuw i32, ptr %1, i64 %93
  %95 = load i32, ptr %94, align 4, !tbaa !55
  %96 = and i32 %95, 16777215
  store i32 %96, ptr %94, align 4, !tbaa !55
  br label %.loopexit

.loopexit:                                        ; preds = %.lr.ph83, %79, %92, %87, %.loopexit75, %78, %14
  %.0 = phi i32 [ -1094995529, %14 ], [ -1163346256, %78 ], [ 0, %.loopexit75 ], [ 0, %87 ], [ 0, %92 ], [ 0, %79 ], [ 0, %.lr.ph83 ]
  ret i32 %.0
}